target datalayout = "e-m:e-p270:32:32-p271:32:32-p272:64:64-i64:64-i128:128-f80:128-n8:16:32:64-S128"
target triple = "x86_64-pc-linux-gnu"

%struct.AVStream = type { ptr, i32, i32, ptr, ptr, %struct.AVRational, i64, i64, i64, i32, i32, %struct.AVRational, ptr, %struct.AVRational, %struct.AVPacket, i32, %struct.AVRational, i32 }
%struct.AVPacket = type { ptr, i64, i64, ptr, i32, i32, i32, ptr, i32, i64, i64, ptr, ptr, %struct.AVRational }
%struct.AVRational = type { i32, i32 }
%struct.AVCodecParameters = type { i32, i32, i32, ptr, i32, ptr, i32, i32, i64, i32, i32, i32, i32, i32, i32, %struct.AVRational, %struct.AVRational, i32, i32, i32, i32, i32, i32, i32, %struct.AVChannelLayout, i32, i32, i32, i32, i32, i32 }
%struct.AVChannelLayout = type { i32, i32, %union.anon.0, ptr }
%union.anon.0 = type { i64 }

@__const.codec2_mode_frame_size.frame_size_table = private unnamed_addr constant [9 x i32] [i32 160, i32 160, i32 320, i32 320, i32 320, i32 320, i32 320, i32 320, i32 320], align 16
@.str.13 = private unnamed_addr constant [47 x i8] c"unknown codec2 mode %i, can't find frame_size\0A\00", align 1
@__const.codec2_mode_block_align.block_align_table = private unnamed_addr constant [9 x i32] [i32 8, i32 6, i32 8, i32 7, i32 7, i32 6, i32 4, i32 4, i32 4], align 16
@.str.14 = private unnamed_addr constant [48 x i8] c"unknown codec2 mode %i, can't find block_align\0A\00", align 1

; Function Attrs: nounwind uwtable
define internal i32 @codec2_mode_block_align(ptr noundef %0, i32 noundef %1) #0 {
  %3 = alloca i32, align 4
  %4 = alloca ptr, align 8
  %5 = alloca i32, align 4
  %6 = alloca [9 x i32], align 16
  %7 = alloca i32, align 4
  store ptr %0, ptr %4, align 8, !tbaa !14
  store i32 %1, ptr %5, align 4, !tbaa !40
  call void @llvm.lifetime.start.p0(i64 36, ptr %6) #7
  call void @llvm.memcpy.p0.p0.i64(ptr align 16 %6, ptr align 16 @__const.codec2_mode_block_align.block_align_table, i64 36, i1 false)
  %8 = load i32, ptr %5, align 4, !tbaa !40
  %9 = icmp slt i32 %8, 0
  br i1 %9, label %13, label %10

10:                                               ; preds = %2
  %11 = load i32, ptr %5, align 4, !tbaa !40
  %12 = icmp sgt i32 %11, 8
  br i1 %12, label %13, label %16

13:                                               ; preds = %10, %2
  %14 = load ptr, ptr %4, align 8, !tbaa !14
  %15 = load i32, ptr %5, align 4, !tbaa !40
  call void (ptr, i32, ptr, ...) @av_log(ptr noundef %14, i32 noundef 16, ptr noundef @.str.14, i32 noundef %15)
  store i32 0, ptr %3, align 4
  store i32 1, ptr %7, align 4
  br label %21

16:                                               ; preds = %10
  %17 = load i32, ptr %5, align 4, !tbaa !40
  %18 = sext i32 %17 to i64
  %19 = getelementptr inbounds [9 x i32], ptr %6, i64 0, i64 %18
  %20 = load i32, ptr %19, align 4, !tbaa !40
  store i32 %20, ptr %3, align 4
  store i32 1, ptr %7, align 4
  br label %21

21:                                               ; preds = %16, %13
  call void @llvm.lifetime.end.p0(i64 36, ptr %6) #7
  %22 = load i32, ptr %3, align 4
  ret i32 %22
}

; Function Attrs: nounwind uwtable
define internal i32 @codec2_mode_frame_size(ptr noundef %0, i32 noundef %1) #0 {
  %3 = alloca i32, align 4
  %4 = alloca ptr, align 8
  %5 = alloca i32, align 4
  %6 = alloca [9 x i32], align 16
  %7 = alloca i32, align 4
  store ptr %0, ptr %4, align 8, !tbaa !14
  store i32 %1, ptr %5, align 4, !tbaa !40
  call void @llvm.lifetime.start.p0(i64 36, ptr %6) #7
  call void @llvm.memcpy.p0.p0.i64(ptr align 16 %6, ptr align 16 @__const.codec2_mode_frame_size.frame_size_table, i64 36, i1 false)
  %8 = load i32, ptr %5, align 4, !tbaa !40
  %9 = icmp slt i32 %8, 0
  br i1 %9, label %13, label %10

10:                                               ; preds = %2
  %11 = load i32, ptr %5, align 4, !tbaa !40
  %12 = icmp sgt i32 %11, 8
  br i1 %12, label %13, label %16

13:                                               ; preds = %10, %2
  %14 = load ptr, ptr %4, align 8, !tbaa !14
  %15 = load i32, ptr %5, align 4, !tbaa !40
  call void (ptr, i32, ptr, ...) @av_log(ptr noundef %14, i32 noundef 16, ptr noundef @.str.13, i32 noundef %15)
  store i32 0, ptr %3, align 4
  store i32 1, ptr %7, align 4
  br label %21

16:                                               ; preds = %10
  %17 = load i32, ptr %5, align 4, !tbaa !40
  %18 = sext i32 %17 to i64
  %19 = getelementptr inbounds [9 x i32], ptr %6, i64 0, i64 %18
  %20 = load i32, ptr %19, align 4, !tbaa !40
  store i32 %20, ptr %3, align 4
  store i32 1, ptr %7, align 4
  br label %21

21:                                               ; preds = %16, %13
  call void @llvm.lifetime.end.p0(i64 36, ptr %6) #7
  %22 = load i32, ptr %3, align 4
  ret i32 %22
}

; Function Attrs: nounwind uwtable
define internal i32 @codec2_mode_bit_rate(ptr noundef %0, i32 noundef %1) #0 {
  %3 = alloca i32, align 4
  %4 = alloca ptr, align 8
  %5 = alloca i32, align 4
  %6 = alloca i32, align 4
  %7 = alloca i32, align 4
  %8 = alloca i32, align 4
  store ptr %0, ptr %4, align 8, !tbaa !14
  store i32 %1, ptr %5, align 4, !tbaa !40
  call void @llvm.lifetime.start.p0(i64 4, ptr %6) #7
  %9 = load ptr, ptr %4, align 8, !tbaa !14
  %10 = load i32, ptr %5, align 4, !tbaa !40
  %11 = call i32 @codec2_mode_frame_size(ptr noundef %9, i32 noundef %10)
  store i32 %11, ptr %6, align 4, !tbaa !40
  call void @llvm.lifetime.start.p0(i64 4, ptr %7) #7
  %12 = load ptr, ptr %4, align 8, !tbaa !14
  %13 = load i32, ptr %5, align 4, !tbaa !40
  %14 = call i32 @codec2_mode_block_align(ptr noundef %12, i32 noundef %13)
  store i32 %14, ptr %7, align 4, !tbaa !40
  %15 = load i32, ptr %6, align 4, !tbaa !40
  %16 = icmp sle i32 %15, 0
  br i1 %16, label %20, label %17

17:                                               ; preds = %2
  %18 = load i32, ptr %7, align 4, !tbaa !40
  %19 = icmp sle i32 %18, 0
  br i1 %19, label %20, label %21

20:                                               ; preds = %17, %2
  store i32 0, ptr %3, align 4
  store i32 1, ptr %8, align 4
  br label %26

21:                                               ; preds = %17
  %22 = load i32, ptr %7, align 4, !tbaa !40
  %23 = mul nsw i32 64000, %22
  %24 = load i32, ptr %6, align 4, !tbaa !40
  %25 = sdiv i32 %23, %24
  store i32 %25, ptr %3, align 4
  store i32 1, ptr %8, align 4
  br label %26

26:                                               ; preds = %21, %20
  call void @llvm.lifetime.end.p0(i64 4, ptr %7) #7
  call void @llvm.lifetime.end.p0(i64 4, ptr %6) #7
  %27 = load i32, ptr %3, align 4
  ret i32 %27
}

; Function Attrs: inlinehint nounwind uwtable
define internal zeroext i8 @codec2_mode_from_extradata(ptr noundef %0) #5 {
  %2 = alloca ptr, align 8
  store ptr %0, ptr %2, align 8, !tbaa !71
  %3 = load ptr, ptr %2, align 8, !tbaa !71
  %4 = getelementptr inbounds i8, ptr %3, i64 2
  %5 = load i8, ptr %4, align 1, !tbaa !13
  ret i8 %5
}

; Function Attrs: nounwind uwtable
define internal i32 @codec2_read_header_common(ptr noundef %0, ptr noundef %1) #0 {
  %3 = alloca i32, align 4
  %4 = alloca ptr, align 8
  %5 = alloca ptr, align 8
  %6 = alloca i32, align 4
  %7 = alloca %struct.AVChannelLayout, align 8
  %8 = alloca i32, align 4
  store ptr %0, ptr %4, align 8, !tbaa !14
  store ptr %1, ptr %5, align 8, !tbaa !16
  call void @llvm.lifetime.start.p0(i64 4, ptr %6) #7
  %9 = load ptr, ptr %5, align 8, !tbaa !16
  %10 = getelementptr inbounds nuw %struct.AVStream, ptr %9, i32 0, i32 3
  %11 = load ptr, ptr %10, align 8, !tbaa !33
  %12 = getelementptr inbounds nuw %struct.AVCodecParameters, ptr %11, i32 0, i32 3
  %13 = load ptr, ptr %12, align 8, !tbaa !41
  %14 = call zeroext i8 @codec2_mode_from_extradata(ptr noundef %13)
  %15 = zext i8 %14 to i32
  store i32 %15, ptr %6, align 4, !tbaa !40
  %16 = load ptr, ptr %5, align 8, !tbaa !16
  %17 = getelementptr inbounds nuw %struct.AVStream, ptr %16, i32 0, i32 3
  %18 = load ptr, ptr %17, align 8, !tbaa !33
  %19 = getelementptr inbounds nuw %struct.AVCodecParameters, ptr %18, i32 0, i32 0
  store i32 1, ptr %19, align 8, !tbaa !62
  %20 = load ptr, ptr %5, align 8, !tbaa !16
  %21 = getelementptr inbounds nuw %struct.AVStream, ptr %20, i32 0, i32 3
  %22 = load ptr, ptr %21, align 8, !tbaa !33
  %23 = getelementptr inbounds nuw %struct.AVCodecParameters, ptr %22, i32 0, i32 1
  store i32 86083, ptr %23, align 4, !tbaa !63
  %24 = load ptr, ptr %5, align 8, !tbaa !16
  %25 = getelementptr inbounds nuw %struct.AVStream, ptr %24, i32 0, i32 3
  %26 = load ptr, ptr %25, align 8, !tbaa !33
  %27 = getelementptr inbounds nuw %struct.AVCodecParameters, ptr %26, i32 0, i32 25
  store i32 8000, ptr %27, align 8, !tbaa !64
  %28 = load ptr, ptr %5, align 8, !tbaa !16
  %29 = getelementptr inbounds nuw %struct.AVStream, ptr %28, i32 0, i32 3
  %30 = load ptr, ptr %29, align 8, !tbaa !33
  %31 = getelementptr inbounds nuw %struct.AVCodecParameters, ptr %30, i32 0, i32 7
  store i32 1, ptr %31, align 4, !tbaa !65
  %32 = load ptr, ptr %5, align 8, !tbaa !16
  %33 = getelementptr inbounds nuw %struct.AVStream, ptr %32, i32 0, i32 3
  %34 = load ptr, ptr %33, align 8, !tbaa !33
  %35 = getelementptr inbounds nuw %struct.AVCodecParameters, ptr %34, i32 0, i32 24
  %36 = getelementptr inbounds nuw %struct.AVChannelLayout, ptr %7, i32 0, i32 0
  store i32 1, ptr %36, align 8, !tbaa !66
  %37 = getelementptr inbounds nuw %struct.AVChannelLayout, ptr %7, i32 0, i32 1
  store i32 1, ptr %37, align 4, !tbaa !67
  %38 = getelementptr inbounds nuw %struct.AVChannelLayout, ptr %7, i32 0, i32 2
  store i64 4, ptr %38, align 8, !tbaa !13
  %39 = getelementptr inbounds nuw %struct.AVChannelLayout, ptr %7, i32 0, i32 3
  store ptr null, ptr %39, align 8, !tbaa !68
  call void @llvm.memcpy.p0.p0.i64(ptr align 8 %35, ptr align 8 %7, i64 24, i1 false), !tbaa.struct !69
  %40 = load ptr, ptr %4, align 8, !tbaa !14
  %41 = load i32, ptr %6, align 4, !tbaa !40
  %42 = call i32 @codec2_mode_bit_rate(ptr noundef %40, i32 noundef %41)
  %43 = sext i32 %42 to i64
  %44 = load ptr, ptr %5, align 8, !tbaa !16
  %45 = getelementptr inbounds nuw %struct.AVStream, ptr %44, i32 0, i32 3
  %46 = load ptr, ptr %45, align 8, !tbaa !33
  %47 = getelementptr inbounds nuw %struct.AVCodecParameters, ptr %46, i32 0, i32 8
  store i64 %43, ptr %47, align 8, !tbaa !70
  %48 = load ptr, ptr %4, align 8, !tbaa !14
  %49 = load i32, ptr %6, align 4, !tbaa !40
  %50 = call i32 @codec2_mode_frame_size(ptr noundef %48, i32 noundef %49)
  %51 = load ptr, ptr %5, align 8, !tbaa !16
  %52 = getelementptr inbounds nuw %struct.AVStream, ptr %51, i32 0, i32 3
  %53 = load ptr, ptr %52, align 8, !tbaa !33
  %54 = getelementptr inbounds nuw %struct.AVCodecParameters, ptr %53, i32 0, i32 27
  store i32 %50, ptr %54, align 8, !tbaa !54
  %55 = load ptr, ptr %4, align 8, !tbaa !14
  %56 = load i32, ptr %6, align 4, !tbaa !40
  %57 = call i32 @codec2_mode_block_align(ptr noundef %55, i32 noundef %56)
  %58 = load ptr, ptr %5, align 8, !tbaa !16
  %59 = getelementptr inbounds nuw %struct.AVStream, ptr %58, i32 0, i32 3
  %60 = load ptr, ptr %59, align 8, !tbaa !33
  %61 = getelementptr inbounds nuw %struct.AVCodecParameters, ptr %60, i32 0, i32 26
  store i32 %57, ptr %61, align 4, !tbaa !53
  %62 = load ptr, ptr %5, align 8, !tbaa !16
  %63 = getelementptr inbounds nuw %struct.AVStream, ptr %62, i32 0, i32 3
  %64 = load ptr, ptr %63, align 8, !tbaa !33
  %65 = getelementptr inbounds nuw %struct.AVCodecParameters, ptr %64, i32 0, i32 8
  %66 = load i64, ptr %65, align 8, !tbaa !70
  %67 = icmp sle i64 %66, 0
  br i1 %67, label %82, label %68

68:                                               ; preds = %2
  %69 = load ptr, ptr %5, align 8, !tbaa !16
  %70 = getelementptr inbounds nuw %struct.AVStream, ptr %69, i32 0, i32 3
  %71 = load ptr, ptr %70, align 8, !tbaa !33
  %72 = getelementptr inbounds nuw %struct.AVCodecParameters, ptr %71, i32 0, i32 27
  %73 = load i32, ptr %72, align 8, !tbaa !54
  %74 = icmp sle i32 %73, 0
  br i1 %74, label %82, label %75

75:                                               ; preds = %68
  %76 = load ptr, ptr %5, align 8, !tbaa !16
  %77 = getelementptr inbounds nuw %struct.AVStream, ptr %76, i32 0, i32 3
  %78 = load ptr, ptr %77, align 8, !tbaa !33
  %79 = getelementptr inbounds nuw %struct.AVCodecParameters, ptr %78, i32 0, i32 26
  %80 = load i32, ptr %79, align 4, !tbaa !53
  %81 = icmp sle i32 %80, 0
  br i1 %81, label %82, label %83

82:                                               ; preds = %75, %68, %2
  store i32 -1094995529, ptr %3, align 4
  store i32 1, ptr %8, align 4
  br label %90

83:                                               ; preds = %75
  %84 = load ptr, ptr %5, align 8, !tbaa !16
  %85 = load ptr, ptr %5, align 8, !tbaa !16
  %86 = getelementptr inbounds nuw %struct.AVStream, ptr %85, i32 0, i32 3
  %87 = load ptr, ptr %86, align 8, !tbaa !33
  %88 = getelementptr inbounds nuw %struct.AVCodecParameters, ptr %87, i32 0, i32 25
  %89 = load i32, ptr %88, align 8, !tbaa !64
  call void @avpriv_set_pts_info(ptr noundef %84, i32 noundef 64, i32 noundef 1, i32 noundef %89)
  store i32 0, ptr %3, align 4
  store i32 1, ptr %8, align 4
  br label %90

90:                                               ; preds = %83, %82
  call void @llvm.lifetime.end.p0(i64 4, ptr %6) #7
  %91 = load i32, ptr %3, align 4
  ret i32 %91
}