; Function Attrs: nounwind uwtable
define internal fastcc range(i32 -1094995529, 1) i32 @codec2_read_header_common(ptr noundef %0, ptr noundef nonnull %1) unnamed_addr #1 {
  %3 = getelementptr inbounds nuw i8, ptr %1, i64 16
  %4 = load ptr, ptr %3, align 8, !tbaa !27
  %5 = getelementptr inbounds nuw i8, ptr %4, i64 16
  %6 = load ptr, ptr %5, align 8, !tbaa !34
  %7 = getelementptr i8, ptr %6, i64 2
  %.val = load i8, ptr %7, align 1, !tbaa !11
  store i32 1, ptr %4, align 8, !tbaa !53
  %8 = getelementptr inbounds nuw i8, ptr %4, i64 4
  store i32 86083, ptr %8, align 4, !tbaa !54
  %9 = getelementptr inbounds nuw i8, ptr %4, i64 152
  store i32 8000, ptr %9, align 8, !tbaa !55
  %10 = getelementptr inbounds nuw i8, ptr %4, i64 44
  store i32 1, ptr %10, align 4, !tbaa !56
  %11 = getelementptr inbounds nuw i8, ptr %4, i64 128
  store i32 1, ptr %11, align 8, !tbaa !57
  %.sroa.2.0..sroa_idx = getelementptr inbounds nuw i8, ptr %4, i64 132
  store i32 1, ptr %.sroa.2.0..sroa_idx, align 4, !tbaa !57
  %.sroa.3.0..sroa_idx = getelementptr inbounds nuw i8, ptr %4, i64 136
  store i64 4, ptr %.sroa.3.0..sroa_idx, align 8, !tbaa !11
  %.sroa.4.0..sroa_idx = getelementptr inbounds nuw i8, ptr %4, i64 144
  store ptr null, ptr %.sroa.4.0..sroa_idx, align 8, !tbaa !58
  %12 = icmp ugt i8 %.val, 8
  br i1 %12, label %13, label %19

13:                                               ; preds = %2
  %14 = zext i8 %.val to i32
  tail call void (ptr, i32, ptr, ...) @av_log(ptr noundef %0, i32 noundef 16, ptr noundef nonnull @.str.13, i32 noundef range(i32 0, 256) %14) #4
  tail call void (ptr, i32, ptr, ...) @av_log(ptr noundef %0, i32 noundef 16, ptr noundef nonnull @.str.14, i32 noundef range(i32 0, 256) %14) #4
  %15 = load ptr, ptr %3, align 8, !tbaa !27
  %16 = getelementptr inbounds nuw i8, ptr %15, i64 48
  store i64 0, ptr %16, align 8, !tbaa !59
  tail call void (ptr, i32, ptr, ...) @av_log(ptr noundef %0, i32 noundef 16, ptr noundef nonnull @.str.13, i32 noundef range(i32 0, 256) %14) #4
  %17 = load ptr, ptr %3, align 8, !tbaa !27
  %18 = getelementptr inbounds nuw i8, ptr %17, i64 160
  store i32 0, ptr %18, align 8, !tbaa !46
  tail call void (ptr, i32, ptr, ...) @av_log(ptr noundef %0, i32 noundef 16, ptr noundef nonnull @.str.14, i32 noundef range(i32 0, 256) %14) #4
  %.pre = load ptr, ptr %3, align 8, !tbaa !27
  %.phi.trans.insert = getelementptr inbounds nuw i8, ptr %.pre, i64 48
  %.pre24 = load i64, ptr %.phi.trans.insert, align 8, !tbaa !59
  br label %codec2_mode_block_align.exit

19:                                               ; preds = %2
  %20 = zext nneg i8 %.val to i64
  %21 = getelementptr inbounds nuw [9 x i32], ptr @__const.codec2_mode_block_align.block_align_table, i64 0, i64 %20
  %22 = load i32, ptr %21, align 4, !tbaa !57
  %23 = getelementptr inbounds nuw [9 x i32], ptr @__const.codec2_mode_frame_size.frame_size_table, i64 0, i64 %20
  %24 = load i32, ptr %23, align 4, !tbaa !57
  %25 = mul nuw nsw i32 %22, 64000
  %26 = udiv i32 %25, %24
  %27 = zext nneg i32 %26 to i64
  %28 = load ptr, ptr %3, align 8, !tbaa !27
  %29 = getelementptr inbounds nuw i8, ptr %28, i64 48
  store i64 %27, ptr %29, align 8, !tbaa !59
  %30 = getelementptr inbounds nuw i8, ptr %28, i64 160
  store i32 %24, ptr %30, align 8, !tbaa !46
  br label %codec2_mode_block_align.exit

codec2_mode_block_align.exit:                     ; preds = %13, %19
  %31 = phi i64 [ %.pre24, %13 ], [ %27, %19 ]
  %32 = phi ptr [ %.pre, %13 ], [ %28, %19 ]
  %.0.i21 = phi i32 [ 0, %13 ], [ %22, %19 ]
  %33 = getelementptr inbounds nuw i8, ptr %32, i64 156
  store i32 %.0.i21, ptr %33, align 4, !tbaa !45
  %34 = icmp slt i64 %31, 1
  br i1 %34, label %43, label %35

35:                                               ; preds = %codec2_mode_block_align.exit
  %36 = getelementptr inbounds nuw i8, ptr %32, i64 160
  %37 = load i32, ptr %36, align 8, !tbaa !46
  %38 = icmp slt i32 %37, 1
  %39 = icmp slt i32 %.0.i21, 1
  %or.cond = select i1 %38, i1 true, i1 %39
  br i1 %or.cond, label %43, label %40

40:                                               ; preds = %35
  %41 = getelementptr inbounds nuw i8, ptr %32, i64 152
  %42 = load i32, ptr %41, align 8, !tbaa !55
  tail call void @avpriv_set_pts_info(ptr noundef nonnull %1, i32 noundef 64, i32 noundef 1, i32 noundef %42) #4
  br label %43

43:                                               ; preds = %codec2_mode_block_align.exit, %35, %40
  %.0 = phi i32 [ 0, %40 ], [ -1094995529, %35 ], [ -1094995529, %codec2_mode_block_align.exit ]
  ret i32 %.0
}